; Function Attrs: cold nounwind optsize uwtable
define internal noundef i32 @decode_close(ptr noundef readonly captures(none) %0) #0 {
  %2 = getelementptr inbounds nuw i8, ptr %0, i64 32
  %3 = load ptr, ptr %2, align 8, !tbaa !4
  %4 = getelementptr inbounds nuw i8, ptr %3, i64 8
  tail call void @av_freep(ptr noundef nonnull %4) #7
  %5 = getelementptr inbounds nuw i8, ptr %3, i64 4
  store i32 0, ptr %5, align 4, !tbaa !36
  %6 = getelementptr inbounds nuw i8, ptr %3, i64 24
  tail call void @av_freep(ptr noundef nonnull %6) #7
  %7 = getelementptr inbounds nuw i8, ptr %3, i64 16
  store i32 0, ptr %7, align 8, !tbaa !38
  %8 = getelementptr inbounds nuw i8, ptr %3, i64 32
  tail call void @ff_inflate_end(ptr noundef nonnull %8) #7
  ret i32 0
}